#include <math.h>
#include <stdio.h>
#include <stdlib.h>
#include <string.h>
#include <iostream>
using namespace std;

/*
 * ??????.cpp
 *
 *  Created on: 2012-10-4
 *      Author:LiMingyang
 *      ???????????????
 */
int main(){
	int i,j,k,n,fei[20];//????
	cin>>n;//????????
	const int n1=n;//?????n1??????
	int a[n1],b[n1];//?????????????
	for (i=0;i<n1;i++)
		cin>>a[i];//?????????
	fei[0]=fei[1]=1;//???????1,2????1
	for (j=2;j<=20;j++)
		fei[j]=fei[j-1]+fei[j-2];//?????????
	b[0]=fei[a[0]];//b[]??????
	cout<<fei[a[0]-1];//??????????
	for (k=1;k<n1;k++)
	{
		b[k]=fei[a[k]-1];
		cout<<endl<<b[k];//????????????
    }
}